target datalayout = "e-m:e-p270:32:32-p271:32:32-p272:64:64-i64:64-i128:128-f80:128-n8:16:32:64-S128"
target triple = "x86_64-pc-linux-gnu"

%"class.icu_77::UnicodeString" = type { %"class.icu_77::Replaceable", %"union.icu_77::UnicodeString::StackBufferOrFields" }
%"class.icu_77::Replaceable" = type { %"class.icu_77::UObject" }
%"class.icu_77::UObject" = type { ptr }
%"union.icu_77::UnicodeString::StackBufferOrFields" = type { %struct.anon.4, [32 x i8] }
%struct.anon.4 = type { i16, i32, i32, ptr }
%"class.icu_77::ListFormatter" = type { %"class.icu_77::UObject", ptr, ptr }
%"struct.icu_77::ListFormatInternal" = type { [8 x i8], %"class.icu_77::SimpleFormatter", %"class.icu_77::SimpleFormatter", %"class.icu_77::LocalPointer" }
%"class.icu_77::SimpleFormatter" = type { [8 x i8], %"class.icu_77::UnicodeString" }
%"class.icu_77::LocalPointer" = type { %"class.icu_77::LocalPointerBase" }
%"class.icu_77::LocalPointerBase" = type { ptr }

; Function Attrs: mustprogress nounwind uwtable
define internal void @_ZN6icu_7716LocalPointerBaseINS_12_GLOBAL__N_114PatternHandlerEEC2EPS2_(ptr noundef nonnull align 8 dereferenceable(8) %0, ptr noundef %1) unnamed_addr #0 align 2 {
  %3 = alloca ptr, align 8
  %4 = alloca ptr, align 8
  store ptr %0, ptr %3, align 8, !tbaa !101
  store ptr %1, ptr %4, align 8, !tbaa !113
  %5 = load ptr, ptr %3, align 8
  %6 = getelementptr inbounds nuw %"class.icu_77::LocalPointerBase", ptr %5, i32 0, i32 0
  %7 = load ptr, ptr %4, align 8, !tbaa !113
  store ptr %7, ptr %6, align 8, !tbaa !103
  ret void
}

; Function Attrs: mustprogress nounwind uwtable
define internal void @_ZN6icu_7716LocalPointerBaseINS_12_GLOBAL__N_114PatternHandlerEED2Ev(ptr noundef nonnull align 8 dereferenceable(8) %0) unnamed_addr #0 align 2 {
  %2 = alloca ptr, align 8
  store ptr %0, ptr %2, align 8, !tbaa !101
  ret void
}

; Function Attrs: mustprogress uwtable
define internal void @_ZN6icu_7712LocalPointerINS_12_GLOBAL__N_114PatternHandlerEEC2EPS2_(ptr noundef nonnull align 8 dereferenceable(8) %0, ptr noundef %1) unnamed_addr #1 align 2 {
  %3 = alloca ptr, align 8
  %4 = alloca ptr, align 8
  store ptr %0, ptr %3, align 8, !tbaa !111
  store ptr %1, ptr %4, align 8, !tbaa !113
  %5 = load ptr, ptr %3, align 8
  %6 = load ptr, ptr %4, align 8, !tbaa !113
  call void @_ZN6icu_7716LocalPointerBaseINS_12_GLOBAL__N_114PatternHandlerEEC2EPS2_(ptr noundef nonnull align 8 dereferenceable(8) %5, ptr noundef %6)
  ret void
}

; Function Attrs: mustprogress nounwind uwtable
define internal noundef ptr @_ZNK6icu_7716LocalPointerBaseINS_12_GLOBAL__N_114PatternHandlerEEptEv(ptr noundef nonnull align 8 dereferenceable(8) %0) #0 align 2 {
  %2 = alloca ptr, align 8
  store ptr %0, ptr %2, align 8, !tbaa !101
  %3 = load ptr, ptr %2, align 8
  %4 = getelementptr inbounds nuw %"class.icu_77::LocalPointerBase", ptr %3, i32 0, i32 0
  %5 = load ptr, ptr %4, align 8, !tbaa !103
  ret ptr %5
}

; Function Attrs: mustprogress uwtable
define linkonce_odr void @_ZN6icu_7715SimpleFormatterC2ERKS0_(ptr noundef nonnull align 8 dereferenceable(72) %0, ptr noundef nonnull align 8 dereferenceable(72) %1) unnamed_addr #1 comdat align 2 {
  %3 = alloca ptr, align 8
  %4 = alloca ptr, align 8
  store ptr %0, ptr %3, align 8, !tbaa !99
  store ptr %1, ptr %4, align 8, !tbaa !99
  %5 = load ptr, ptr %3, align 8
  %6 = getelementptr inbounds nuw %"class.icu_77::SimpleFormatter", ptr %5, i32 0, i32 1
  %7 = load ptr, ptr %4, align 8, !tbaa !99
  %8 = getelementptr inbounds nuw %"class.icu_77::SimpleFormatter", ptr %7, i32 0, i32 1
  call void @_ZN6icu_7713UnicodeStringC1ERKS0_(ptr noundef nonnull align 8 dereferenceable(64) %6, ptr noundef nonnull align 8 dereferenceable(64) %8)
  ret void
}

; Function Attrs: mustprogress nounwind uwtable
define internal void @_ZN6icu_7712LocalPointerINS_12_GLOBAL__N_114PatternHandlerEED2Ev(ptr noundef nonnull align 8 dereferenceable(8) %0) unnamed_addr #0 align 2 {
  %2 = alloca ptr, align 8
  store ptr %0, ptr %2, align 8, !tbaa !111
  %3 = load ptr, ptr %2, align 8
  %4 = getelementptr inbounds nuw %"class.icu_77::LocalPointerBase", ptr %3, i32 0, i32 0
  %5 = load ptr, ptr %4, align 8, !tbaa !103
  %6 = icmp eq ptr %5, null
  br i1 %6, label %11, label %7

7:                                                ; preds = %1
  %8 = load ptr, ptr %5, align 8, !tbaa !27
  %9 = getelementptr inbounds ptr, ptr %8, i64 1
  %10 = load ptr, ptr %9, align 8
  call void %10(ptr noundef nonnull align 8 dereferenceable(152) %5) #12
  br label %11

11:                                               ; preds = %7, %1
  call void @_ZN6icu_7716LocalPointerBaseINS_12_GLOBAL__N_114PatternHandlerEED2Ev(ptr noundef nonnull align 8 dereferenceable(8) %3) #12
  ret void
}

; Function Attrs: mustprogress uwtable
define linkonce_odr void @_ZN6icu_7718ListFormatInternalC2ERKS0_(ptr noundef nonnull align 8 dereferenceable(160) %0, ptr noundef nonnull align 8 dereferenceable(160) %1) unnamed_addr #1 comdat align 2 personality ptr @__gxx_personality_v0 {
  %3 = alloca ptr, align 8
  %4 = alloca ptr, align 8
  %5 = alloca ptr, align 8
  %6 = alloca i32, align 4
  store ptr %0, ptr %3, align 8, !tbaa !48
  store ptr %1, ptr %4, align 8, !tbaa !48
  %7 = load ptr, ptr %3, align 8
  %8 = getelementptr inbounds nuw %"struct.icu_77::ListFormatInternal", ptr %7, i32 0, i32 1
  %9 = load ptr, ptr %4, align 8, !tbaa !48
  %10 = getelementptr inbounds nuw %"struct.icu_77::ListFormatInternal", ptr %9, i32 0, i32 1
  call void @_ZN6icu_7715SimpleFormatterC2ERKS0_(ptr noundef nonnull align 8 dereferenceable(72) %8, ptr noundef nonnull align 8 dereferenceable(72) %10)
  %11 = getelementptr inbounds nuw %"struct.icu_77::ListFormatInternal", ptr %7, i32 0, i32 2
  %12 = load ptr, ptr %4, align 8, !tbaa !48
  %13 = getelementptr inbounds nuw %"struct.icu_77::ListFormatInternal", ptr %12, i32 0, i32 2
  invoke void @_ZN6icu_7715SimpleFormatterC2ERKS0_(ptr noundef nonnull align 8 dereferenceable(72) %11, ptr noundef nonnull align 8 dereferenceable(72) %13)
          to label %14 unwind label %26

14:                                               ; preds = %2
  %15 = getelementptr inbounds nuw %"struct.icu_77::ListFormatInternal", ptr %7, i32 0, i32 3
  %16 = load ptr, ptr %4, align 8, !tbaa !48
  %17 = getelementptr inbounds nuw %"struct.icu_77::ListFormatInternal", ptr %16, i32 0, i32 3
  %18 = invoke noundef ptr @_ZNK6icu_7716LocalPointerBaseINS_12_GLOBAL__N_114PatternHandlerEEptEv(ptr noundef nonnull align 8 dereferenceable(8) %17)
          to label %19 unwind label %30

19:                                               ; preds = %14
  %20 = load ptr, ptr %18, align 8, !tbaa !27
  %21 = getelementptr inbounds ptr, ptr %20, i64 3
  %22 = load ptr, ptr %21, align 8
  %23 = invoke noundef ptr %22(ptr noundef nonnull align 8 dereferenceable(152) %18)
          to label %24 unwind label %30

24:                                               ; preds = %19
  invoke void @_ZN6icu_7712LocalPointerINS_12_GLOBAL__N_114PatternHandlerEEC2EPS2_(ptr noundef nonnull align 8 dereferenceable(8) %15, ptr noundef %23)
          to label %25 unwind label %30

25:                                               ; preds = %24
  ret void

26:                                               ; preds = %2
  %27 = landingpad { ptr, i32 }
          cleanup
  %28 = extractvalue { ptr, i32 } %27, 0
  store ptr %28, ptr %5, align 8
  %29 = extractvalue { ptr, i32 } %27, 1
  store i32 %29, ptr %6, align 4
  br label %34

30:                                               ; preds = %24, %19, %14
  %31 = landingpad { ptr, i32 }
          cleanup
  %32 = extractvalue { ptr, i32 } %31, 0
  store ptr %32, ptr %5, align 8
  %33 = extractvalue { ptr, i32 } %31, 1
  store i32 %33, ptr %6, align 4
  call void @_ZN6icu_7715SimpleFormatterD1Ev(ptr noundef nonnull align 8 dereferenceable(72) %11) #12
  br label %34

34:                                               ; preds = %30, %26
  call void @_ZN6icu_7715SimpleFormatterD1Ev(ptr noundef nonnull align 8 dereferenceable(72) %8) #12
  br label %35

35:                                               ; preds = %34
  %36 = load ptr, ptr %5, align 8
  %37 = load i32, ptr %6, align 4
  %38 = insertvalue { ptr, i32 } poison, ptr %36, 0
  %39 = insertvalue { ptr, i32 } %38, i32 %37, 1
  resume { ptr, i32 } %39
}

; Function Attrs: inlinehint mustprogress nounwind uwtable
define linkonce_odr void @_ZN6icu_7718ListFormatInternalD2Ev(ptr noundef nonnull align 8 dereferenceable(160) %0) unnamed_addr #2 comdat align 2 {
  %2 = alloca ptr, align 8
  store ptr %0, ptr %2, align 8, !tbaa !48
  %3 = load ptr, ptr %2, align 8
  %4 = getelementptr inbounds nuw %"struct.icu_77::ListFormatInternal", ptr %3, i32 0, i32 3
  call void @_ZN6icu_7712LocalPointerINS_12_GLOBAL__N_114PatternHandlerEED2Ev(ptr noundef nonnull align 8 dereferenceable(8) %4) #12
  %5 = getelementptr inbounds nuw %"struct.icu_77::ListFormatInternal", ptr %3, i32 0, i32 2
  call void @_ZN6icu_7715SimpleFormatterD1Ev(ptr noundef nonnull align 8 dereferenceable(72) %5) #12
  %6 = getelementptr inbounds nuw %"struct.icu_77::ListFormatInternal", ptr %3, i32 0, i32 1
  call void @_ZN6icu_7715SimpleFormatterD1Ev(ptr noundef nonnull align 8 dereferenceable(72) %6) #12
  ret void
}

; Function Attrs: mustprogress uwtable
define noundef nonnull align 8 dereferenceable(24) ptr @_ZN6icu_7713ListFormatteraSERKS0_(ptr noundef nonnull align 8 dereferenceable(24) %0, ptr noundef nonnull align 8 dereferenceable(24) %1) #1 align 2 personality ptr @__gxx_personality_v0 {
  %3 = alloca ptr, align 8
  %4 = alloca ptr, align 8
  %5 = alloca ptr, align 8
  %6 = alloca ptr, align 8
  %7 = alloca i1, align 1
  %8 = alloca ptr, align 8
  %9 = alloca i32, align 4
  store ptr %0, ptr %4, align 8, !tbaa !39
  store ptr %1, ptr %5, align 8, !tbaa !39
  %10 = load ptr, ptr %4, align 8
  %11 = load ptr, ptr %5, align 8, !tbaa !39
  %12 = icmp eq ptr %10, %11
  br i1 %12, label %13, label %14

13:                                               ; preds = %2
  store ptr %10, ptr %3, align 8
  br label %53

14:                                               ; preds = %2
  %15 = getelementptr inbounds nuw %"class.icu_77::ListFormatter", ptr %10, i32 0, i32 1
  %16 = load ptr, ptr %15, align 8, !tbaa !41
  %17 = icmp eq ptr %16, null
  br i1 %17, label %19, label %18

18:                                               ; preds = %14
  call void @_ZN6icu_7718ListFormatInternalD2Ev(ptr noundef nonnull align 8 dereferenceable(160) %16) #12
  call void @_ZN6icu_777UMemorydlEPv(ptr noundef %16) #12
  br label %19

19:                                               ; preds = %18, %14
  %20 = load ptr, ptr %5, align 8, !tbaa !39
  %21 = getelementptr inbounds nuw %"class.icu_77::ListFormatter", ptr %20, i32 0, i32 1
  %22 = load ptr, ptr %21, align 8, !tbaa !41
  %23 = icmp ne ptr %22, null
  br i1 %23, label %24, label %46

24:                                               ; preds = %19
  %25 = call noundef ptr @_ZN6icu_777UMemorynwEm(i64 noundef 160) #12
  %26 = icmp eq ptr %25, null
  store i1 false, ptr %7, align 1
  br i1 %26, label %32, label %27

27:                                               ; preds = %24
  store ptr %25, ptr %6, align 8
  store i1 true, ptr %7, align 1
  %28 = load ptr, ptr %5, align 8, !tbaa !39
  %29 = getelementptr inbounds nuw %"class.icu_77::ListFormatter", ptr %28, i32 0, i32 1
  %30 = load ptr, ptr %29, align 8, !tbaa !41
  invoke void @_ZN6icu_7718ListFormatInternalC2ERKS0_(ptr noundef nonnull align 8 dereferenceable(160) %25, ptr noundef nonnull align 8 dereferenceable(160) %30)
          to label %31 unwind label %38

31:                                               ; preds = %27
  br label %32

32:                                               ; preds = %31, %24
  %33 = phi ptr [ %25, %31 ], [ null, %24 ]
  %34 = getelementptr inbounds nuw %"class.icu_77::ListFormatter", ptr %10, i32 0, i32 1
  store ptr %33, ptr %34, align 8, !tbaa !41
  %35 = getelementptr inbounds nuw %"class.icu_77::ListFormatter", ptr %10, i32 0, i32 1
  %36 = load ptr, ptr %35, align 8, !tbaa !41
  %37 = getelementptr inbounds nuw %"class.icu_77::ListFormatter", ptr %10, i32 0, i32 2
  store ptr %36, ptr %37, align 8, !tbaa !45
  br label %52

38:                                               ; preds = %27
  %39 = landingpad { ptr, i32 }
          cleanup
  %40 = extractvalue { ptr, i32 } %39, 0
  store ptr %40, ptr %8, align 8
  %41 = extractvalue { ptr, i32 } %39, 1
  store i32 %41, ptr %9, align 4
  %42 = load i1, ptr %7, align 1
  br i1 %42, label %43, label %45

43:                                               ; preds = %38
  %44 = load ptr, ptr %6, align 8
  call void @_ZN6icu_777UMemorydlEPv(ptr noundef %44) #12
  br label %45

45:                                               ; preds = %43, %38
  br label %55

46:                                               ; preds = %19
  %47 = getelementptr inbounds nuw %"class.icu_77::ListFormatter", ptr %10, i32 0, i32 1
  store ptr null, ptr %47, align 8, !tbaa !41
  %48 = load ptr, ptr %5, align 8, !tbaa !39
  %49 = getelementptr inbounds nuw %"class.icu_77::ListFormatter", ptr %48, i32 0, i32 2
  %50 = load ptr, ptr %49, align 8, !tbaa !45
  %51 = getelementptr inbounds nuw %"class.icu_77::ListFormatter", ptr %10, i32 0, i32 2
  store ptr %50, ptr %51, align 8, !tbaa !45
  br label %52

52:                                               ; preds = %46, %32
  store ptr %10, ptr %3, align 8
  br label %53

53:                                               ; preds = %52, %13
  %54 = load ptr, ptr %3, align 8
  ret ptr %54

55:                                               ; preds = %45
  %56 = load ptr, ptr %8, align 8
  %57 = load i32, ptr %9, align 4
  %58 = insertvalue { ptr, i32 } poison, ptr %56, 0
  %59 = insertvalue { ptr, i32 } %58, i32 %57, 1
  resume { ptr, i32 } %59
}