; Function Attrs: mustprogress uwtable
define noundef nonnull align 8 dereferenceable(24) ptr @_ZN6icu_7713ListFormatteraSERKS0_(ptr noundef nonnull returned align 8 dereferenceable(24) %0, ptr noundef nonnull readonly align 8 dereferenceable(24) %1) local_unnamed_addr #1 align 2 personality ptr @__gxx_personality_v0 {
  %3 = icmp eq ptr %0, %1
  br i1 %3, label %49, label %4

4:                                                ; preds = %2
  %5 = getelementptr inbounds nuw i8, ptr %0, i64 8
  %6 = load ptr, ptr %5, align 8, !tbaa !35
  %7 = icmp eq ptr %6, null
  br i1 %7, label %17, label %8

8:                                                ; preds = %4
  %9 = getelementptr inbounds nuw i8, ptr %6, i64 152
  %.val.i = load ptr, ptr %9, align 8, !tbaa !40
  %10 = icmp eq ptr %.val.i, null
  br i1 %10, label %_ZN6icu_7718ListFormatInternalD2Ev.exit, label %11

11:                                               ; preds = %8
  %12 = load ptr, ptr %.val.i, align 8, !tbaa !15
  %13 = getelementptr inbounds nuw i8, ptr %12, i64 8
  %14 = load ptr, ptr %13, align 8
  tail call void %14(ptr noundef nonnull align 8 dereferenceable(152) %.val.i) #19
  br label %_ZN6icu_7718ListFormatInternalD2Ev.exit

_ZN6icu_7718ListFormatInternalD2Ev.exit:          ; preds = %8, %11
  %15 = getelementptr inbounds nuw i8, ptr %6, i64 80
  tail call void @_ZN6icu_7715SimpleFormatterD1Ev(ptr noundef nonnull align 8 dereferenceable(72) %15) #19
  %16 = getelementptr inbounds nuw i8, ptr %6, i64 8
  tail call void @_ZN6icu_7715SimpleFormatterD1Ev(ptr noundef nonnull align 8 dereferenceable(72) %16) #19
  tail call void @_ZN6icu_777UMemorydlEPv(ptr noundef nonnull %6) #19
  br label %17

17:                                               ; preds = %_ZN6icu_7718ListFormatInternalD2Ev.exit, %4
  %18 = getelementptr inbounds nuw i8, ptr %1, i64 8
  %19 = load ptr, ptr %18, align 8, !tbaa !35
  %.not = icmp eq ptr %19, null
  br i1 %.not, label %45, label %20

20:                                               ; preds = %17
  %21 = tail call noundef ptr @_ZN6icu_777UMemorynwEm(i64 noundef 160) #19
  %22 = icmp eq ptr %21, null
  br i1 %22, label %42, label %23

23:                                               ; preds = %20
  %24 = load ptr, ptr %18, align 8, !tbaa !35
  %25 = getelementptr inbounds nuw i8, ptr %21, i64 16
  %26 = getelementptr inbounds nuw i8, ptr %24, i64 16
  invoke void @_ZN6icu_7713UnicodeStringC1ERKS0_(ptr noundef nonnull align 8 dereferenceable(64) %25, ptr noundef nonnull align 8 dereferenceable(64) %26)
          to label %.noexc unwind label %43

.noexc:                                           ; preds = %23
  %27 = getelementptr inbounds nuw i8, ptr %21, i64 80
  %28 = getelementptr inbounds nuw i8, ptr %21, i64 88
  %29 = getelementptr inbounds nuw i8, ptr %24, i64 88
  invoke void @_ZN6icu_7713UnicodeStringC1ERKS0_(ptr noundef nonnull align 8 dereferenceable(64) %28, ptr noundef nonnull align 8 dereferenceable(64) %29)
          to label %_ZN6icu_7715SimpleFormatterC2ERKS0_.exit.i unwind label %35

_ZN6icu_7715SimpleFormatterC2ERKS0_.exit.i:       ; preds = %.noexc
  %30 = getelementptr inbounds nuw i8, ptr %24, i64 152
  %.val.i12 = load ptr, ptr %30, align 8, !tbaa !40
  %31 = load ptr, ptr %.val.i12, align 8, !tbaa !15
  %32 = getelementptr inbounds nuw i8, ptr %31, i64 24
  %33 = load ptr, ptr %32, align 8
  %34 = invoke noundef ptr %33(ptr noundef nonnull align 8 dereferenceable(152) %.val.i12)
          to label %_ZN6icu_7718ListFormatInternalC2ERKS0_.exit unwind label %37

35:                                               ; preds = %.noexc
  %36 = landingpad { ptr, i32 }
          cleanup
  br label %39

37:                                               ; preds = %_ZN6icu_7715SimpleFormatterC2ERKS0_.exit.i
  %38 = landingpad { ptr, i32 }
          cleanup
  tail call void @_ZN6icu_7715SimpleFormatterD1Ev(ptr noundef nonnull align 8 dereferenceable(72) %27) #19
  br label %39

39:                                               ; preds = %37, %35
  %.pn.i = phi { ptr, i32 } [ %38, %37 ], [ %36, %35 ]
  %40 = getelementptr inbounds nuw i8, ptr %21, i64 8
  tail call void @_ZN6icu_7715SimpleFormatterD1Ev(ptr noundef nonnull align 8 dereferenceable(72) %40) #19
  br label %.body

_ZN6icu_7718ListFormatInternalC2ERKS0_.exit:      ; preds = %_ZN6icu_7715SimpleFormatterC2ERKS0_.exit.i
  %41 = getelementptr inbounds nuw i8, ptr %21, i64 152
  store ptr %34, ptr %41, align 8, !tbaa !40
  br label %42

42:                                               ; preds = %_ZN6icu_7718ListFormatInternalC2ERKS0_.exit, %20
  store ptr %21, ptr %5, align 8, !tbaa !35
  br label %.sink.split

43:                                               ; preds = %23
  %44 = landingpad { ptr, i32 }
          cleanup
  br label %.body

.body:                                            ; preds = %39, %43
  %eh.lpad-body = phi { ptr, i32 } [ %44, %43 ], [ %.pn.i, %39 ]
  tail call void @_ZN6icu_777UMemorydlEPv(ptr noundef nonnull %21) #19
  resume { ptr, i32 } %eh.lpad-body

45:                                               ; preds = %17
  store ptr null, ptr %5, align 8, !tbaa !35
  %46 = getelementptr inbounds nuw i8, ptr %1, i64 16
  %47 = load ptr, ptr %46, align 8, !tbaa !39
  br label %.sink.split

.sink.split:                                      ; preds = %45, %42
  %.sink = phi ptr [ %21, %42 ], [ %47, %45 ]
  %48 = getelementptr inbounds nuw i8, ptr %0, i64 16
  store ptr %.sink, ptr %48, align 8, !tbaa !39
  br label %49

49:                                               ; preds = %.sink.split, %2
  ret ptr %0
}